; Function Attrs: nounwind uwtable
define ptr @l_Lean_Elab_Term_elabBindersEx___rarg(ptr noundef %0, ptr noundef %1, ptr noundef %2, ptr noundef %3, ptr noundef %4, ptr noundef %5, ptr noundef %6, ptr noundef %7, ptr noundef %8) #1 {
  %10 = tail call zeroext i8 @l_Array_isEmpty___rarg(ptr noundef %0) #6
  %11 = icmp eq i8 %10, 0
  br i1 %11, label %12, label %22

12:                                               ; preds = %9
  tail call void @lean_inc_heartbeat() #6
  %13 = tail call noalias ptr @mi_malloc_small(i64 noundef 40) #6
  %14 = icmp eq ptr %13, null
  br i1 %14, label %15, label %lean_alloc_closure.exit

15:                                               ; preds = %12
  tail call void @lean_internal_panic_out_of_memory() #7
  unreachable

lean_alloc_closure.exit:                          ; preds = %12
  %16 = getelementptr inbounds nuw i8, ptr %13, i64 4
  store i32 1, ptr %13, align 4, !tbaa !8
  store i32 -184549336, ptr %16, align 4
  %17 = getelementptr inbounds nuw i8, ptr %13, i64 8
  store ptr @l___private_Lean_Elab_Binders_0__Lean_Elab_Term_elabBindersAux___rarg, ptr %17, align 8, !tbaa !4
  %18 = getelementptr inbounds nuw i8, ptr %13, i64 16
  store i16 9, ptr %18, align 8, !tbaa !15
  %19 = getelementptr inbounds nuw i8, ptr %13, i64 18
  store i16 2, ptr %19, align 2, !tbaa !15
  %20 = getelementptr inbounds nuw i8, ptr %13, i64 24
  store ptr %0, ptr %20, align 8, !tbaa !4
  %21 = getelementptr inbounds nuw i8, ptr %13, i64 32
  store ptr %1, ptr %21, align 8, !tbaa !4
  br label %34

22:                                               ; preds = %9
  %23 = ptrtoint ptr %0 to i64
  %24 = and i64 %23, 1
  %.not = icmp eq i64 %24, 0
  br i1 %.not, label %25, label %lean_dec.exit

25:                                               ; preds = %22
  %26 = load i32, ptr %0, align 4, !tbaa !8
  %27 = icmp sgt i32 %26, 1
  br i1 %27, label %28, label %30, !prof !11

28:                                               ; preds = %25
  %29 = add nsw i32 %26, -1
  store i32 %29, ptr %0, align 4, !tbaa !8
  br label %lean_dec.exit

30:                                               ; preds = %25
  %.not.i = icmp eq i32 %26, 0
  br i1 %.not.i, label %lean_dec.exit, label %31

31:                                               ; preds = %30
  tail call void @lean_dec_ref_cold(ptr noundef nonnull %0) #6
  br label %lean_dec.exit

lean_dec.exit:                                    ; preds = %31, %30, %28, %22
  %32 = load ptr, ptr @l___private_Lean_Elab_Binders_0__Lean_Elab_Term_elabBindersAux___rarg___closed__1, align 8, !tbaa !4
  %33 = tail call ptr @lean_apply_1(ptr noundef %1, ptr noundef %32) #6
  br label %34

34:                                               ; preds = %lean_dec.exit, %lean_alloc_closure.exit
  %.sink = phi ptr [ %33, %lean_dec.exit ], [ %13, %lean_alloc_closure.exit ]
  %35 = tail call ptr @l_Lean_Elab_Term_universeConstraintsCheckpoint___rarg(ptr noundef %.sink, ptr noundef %2, ptr noundef %3, ptr noundef %4, ptr noundef %5, ptr noundef %6, ptr noundef %7, ptr noundef %8) #6
  ret ptr %35
}